; Function Attrs: nounwind uwtable
define ptr @l_Lean_Meta_IndPredBelow_mkContext_motiveName(ptr noundef readonly captures(none) %0, ptr noundef %1, ptr readnone captures(none) %2, ptr readnone captures(none) %3, ptr noundef %4, ptr noundef %5, ptr noundef %6) local_unnamed_addr #0 {
lean_dec.exit:
  %7 = getelementptr i8, ptr %0, i64 8
  %.val = load i64, ptr %7, align 8, !tbaa !8
  %8 = and i64 %.val, 9223372036854775806
  %.not = icmp eq i64 %8, 0
  br i1 %.not, label %9, label %11

9:                                                ; preds = %lean_dec.exit
  %10 = load ptr, ptr @l_Lean_Meta_IndPredBelow_mkContext_motiveName___closed__2, align 8, !tbaa !4
  br label %40

11:                                               ; preds = %lean_dec.exit
  %12 = ptrtoint ptr %1 to i64
  %13 = and i64 %12, 1
  %.not31 = icmp eq i64 %13, 0
  br i1 %.not31, label %.critedge.i, label %14, !prof !10

14:                                               ; preds = %11
  %15 = lshr i64 %12, 1
  %16 = add nuw i64 %15, 1
  %17 = icmp sgt i64 %16, -1
  br i1 %17, label %18, label %22, !prof !11

18:                                               ; preds = %14
  %19 = shl nuw i64 %16, 1
  %20 = or disjoint i64 %19, 1
  %21 = inttoptr i64 %20 to ptr
  br label %lean_nat_add.exit

22:                                               ; preds = %14
  %23 = tail call ptr @lean_big_usize_to_nat(i64 noundef range(i64 0, -1) %16) #6
  br label %lean_nat_add.exit

.critedge.i:                                      ; preds = %11
  %24 = tail call ptr @lean_nat_big_add(ptr noundef %1, ptr noundef nonnull inttoptr (i64 3 to ptr)) #6
  br label %lean_nat_add.exit

lean_nat_add.exit:                                ; preds = %22, %18, %.critedge.i
  %.0.i = phi ptr [ %24, %.critedge.i ], [ %21, %18 ], [ %23, %22 ]
  %25 = tail call ptr @l___private_Init_Data_Repr_0__Nat_reprFast(ptr noundef %.0.i) #6
  %26 = load ptr, ptr @l_Lean_Meta_IndPredBelow_mkContext_motiveName___closed__3, align 8, !tbaa !4
  %27 = tail call ptr @lean_string_append(ptr noundef %26, ptr noundef %25) #6
  %28 = ptrtoint ptr %25 to i64
  %29 = and i64 %28, 1
  %.not32 = icmp eq i64 %29, 0
  br i1 %.not32, label %30, label %lean_dec.exit25

30:                                               ; preds = %lean_nat_add.exit
  %31 = load i32, ptr %25, align 4, !tbaa !12
  %32 = icmp sgt i32 %31, 1
  br i1 %32, label %33, label %35, !prof !11

33:                                               ; preds = %30
  %34 = add nsw i32 %31, -1
  store i32 %34, ptr %25, align 4, !tbaa !12
  br label %lean_dec.exit25

35:                                               ; preds = %30
  %.not.i = icmp eq i32 %31, 0
  br i1 %.not.i, label %lean_dec.exit25, label %36

36:                                               ; preds = %35
  tail call void @lean_dec_ref_cold(ptr noundef nonnull %25) #6
  br label %lean_dec.exit25

lean_dec.exit25:                                  ; preds = %36, %35, %33, %lean_nat_add.exit
  %37 = load ptr, ptr @l_Lean_Meta_IndPredBelow_initFn____x40_Lean_Meta_IndPredBelow___hyg_6____closed__3, align 8, !tbaa !4
  %38 = tail call ptr @lean_string_append(ptr noundef %27, ptr noundef %37) #6
  %39 = tail call ptr @l_Lean_Name_str___override(ptr noundef nonnull inttoptr (i64 1 to ptr), ptr noundef %38) #6
  br label %40

40:                                               ; preds = %lean_dec.exit25, %9
  %.sink = phi ptr [ %39, %lean_dec.exit25 ], [ %10, %9 ]
  %41 = tail call ptr @l___private_Lean_CoreM_0__Lean_Core_mkFreshNameImp(ptr noundef %.sink, ptr noundef %4, ptr noundef %5, ptr noundef %6) #6
  ret ptr %41
}